
obj/rpi_test.elf:     file format elf32-littlearm


Disassembly of section .text:

00008000 <_start>:
    8000:	e59ff018 	ldr	pc, [pc, #24]	; 8020 <reset_handler>
    8004:	e59ff018 	ldr	pc, [pc, #24]	; 8024 <undefined_handler>
    8008:	e59ff018 	ldr	pc, [pc, #24]	; 8028 <swi_handler>
    800c:	e59ff018 	ldr	pc, [pc, #24]	; 802c <prefetch_handler>
    8010:	e59ff018 	ldr	pc, [pc, #24]	; 8030 <data_handler>
    8014:	e59ff018 	ldr	pc, [pc, #24]	; 8034 <hyp_handler>
    8018:	e59ff018 	ldr	pc, [pc, #24]	; 8038 <irq_handler>
    801c:	e59ff018 	ldr	pc, [pc, #24]	; 803c <fiq_handler>

00008020 <reset_handler>:
    8020:	00008040 	andeq	r8, r0, r0, asr #32

00008024 <undefined_handler>:
    8024:	00008050 	andeq	r8, r0, r0, asr r0

00008028 <swi_handler>:
    8028:	00008050 	andeq	r8, r0, r0, asr r0

0000802c <prefetch_handler>:
    802c:	00008050 	andeq	r8, r0, r0, asr r0

00008030 <data_handler>:
    8030:	00008050 	andeq	r8, r0, r0, asr r0

00008034 <hyp_handler>:
    8034:	00008050 	andeq	r8, r0, r0, asr r0

00008038 <irq_handler>:
    8038:	00008078 	andeq	r8, r0, r8, ror r0

0000803c <fiq_handler>:
    803c:	00008050 	andeq	r8, r0, r0, asr r0

00008040 <reset>:
    8040:	e3a00902 	mov	r0, #32768	; 0x8000
    8044:	ee8c0f10 	mcr	15, 4, r0, cr12, cr0, {0}
    8048:	e3a0d902 	mov	sp, #32768	; 0x8000
    804c:	eb00002c 	bl	8104 <notmain>

00008050 <hang>:
    8050:	eafffffe 	b	8050 <hang>

00008054 <PUT32>:
    8054:	e5801000 	str	r1, [r0]
    8058:	e12fff1e 	bx	lr

0000805c <GET32>:
    805c:	e5900000 	ldr	r0, [r0]
    8060:	e12fff1e 	bx	lr

00008064 <dummy>:
    8064:	e12fff1e 	bx	lr

00008068 <enable_irq>:
    8068:	e10f0000 	mrs	r0, CPSR
    806c:	e3c00080 	bic	r0, r0, #128	; 0x80
    8070:	e121f000 	msr	CPSR_c, r0
    8074:	e12fff1e 	bx	lr

00008078 <irq>:
    8078:	e92d5fff 	push	{r0, r1, r2, r3, r4, r5, r6, r7, r8, r9, sl, fp, ip, lr}
    807c:	eb000001 	bl	8088 <c_irq_handler>
    8080:	e8bd5fff 	pop	{r0, r1, r2, r3, r4, r5, r6, r7, r8, r9, sl, fp, ip, lr}
    8084:	e160006e 	eret

00008088 <c_irq_handler>:
    8088:	e308323c 	movw	r3, #33340	; 0x823c
    808c:	e3403000 	movt	r3, #0
    8090:	e92d4010 	push	{r4, lr}
    8094:	e5932000 	ldr	r2, [r3]
    8098:	e2822001 	add	r2, r2, #1
    809c:	e5832000 	str	r2, [r3]
    80a0:	e5933000 	ldr	r3, [r3]
    80a4:	e3130001 	tst	r3, #1
    80a8:	1a00000c 	bne	80e0 <c_irq_handler+0x58>
    80ac:	e3a0002c 	mov	r0, #44	; 0x2c
    80b0:	e3a01008 	mov	r1, #8
    80b4:	e3430f20 	movt	r0, #16160	; 0x3f20
    80b8:	ebffffe5 	bl	8054 <PUT32>
    80bc:	e3a0002c 	mov	r0, #44	; 0x2c
    80c0:	e3a01902 	mov	r1, #32768	; 0x8000
    80c4:	e3430f20 	movt	r0, #16160	; 0x3f20
    80c8:	ebffffe1 	bl	8054 <PUT32>
    80cc:	e30b040c 	movw	r0, #46092	; 0xb40c
    80d0:	e3a01000 	mov	r1, #0
    80d4:	e3430f00 	movt	r0, #16128	; 0x3f00
    80d8:	e8bd4010 	pop	{r4, lr}
    80dc:	eaffffdc 	b	8054 <PUT32>
    80e0:	e3a00020 	mov	r0, #32
    80e4:	e3a01902 	mov	r1, #32768	; 0x8000
    80e8:	e3430f20 	movt	r0, #16160	; 0x3f20
    80ec:	ebffffd8 	bl	8054 <PUT32>
    80f0:	e3a00020 	mov	r0, #32
    80f4:	e3a01008 	mov	r1, #8
    80f8:	e3430f20 	movt	r0, #16160	; 0x3f20
    80fc:	ebffffd4 	bl	8054 <PUT32>
    8100:	eafffff1 	b	80cc <c_irq_handler+0x44>

00008104 <notmain>:
    8104:	e30b0224 	movw	r0, #45604	; 0xb224
    8108:	e3a01001 	mov	r1, #1
    810c:	e92d4010 	push	{r4, lr}
    8110:	e3430f00 	movt	r0, #16128	; 0x3f00
    8114:	ebffffce 	bl	8054 <PUT32>
    8118:	e3a00010 	mov	r0, #16
    811c:	e3430f20 	movt	r0, #16160	; 0x3f20
    8120:	ebffffcd 	bl	805c <GET32>
    8124:	e3c0160e 	bic	r1, r0, #14680064	; 0xe00000
    8128:	e3a00010 	mov	r0, #16
    812c:	e3811602 	orr	r1, r1, #2097152	; 0x200000
    8130:	e3430f20 	movt	r0, #16160	; 0x3f20
    8134:	ebffffc6 	bl	8054 <PUT32>
    8138:	e3a00020 	mov	r0, #32
    813c:	e3a01902 	mov	r1, #32768	; 0x8000
    8140:	e3430f20 	movt	r0, #16160	; 0x3f20
    8144:	ebffffc2 	bl	8054 <PUT32>
    8148:	e30b0408 	movw	r0, #46088	; 0xb408
    814c:	e3a0183e 	mov	r1, #4063232	; 0x3e0000
    8150:	e3430f00 	movt	r0, #16128	; 0x3f00
    8154:	ebffffbe 	bl	8054 <PUT32>
    8158:	e304123f 	movw	r1, #16959	; 0x423f
    815c:	e3a00b2d 	mov	r0, #46080	; 0xb400
    8160:	e340100f 	movt	r1, #15
    8164:	e3430f00 	movt	r0, #16128	; 0x3f00
    8168:	ebffffb9 	bl	8054 <PUT32>
    816c:	e304123f 	movw	r1, #16959	; 0x423f
    8170:	e30b0418 	movw	r0, #46104	; 0xb418
    8174:	e340100f 	movt	r1, #15
    8178:	e3430f00 	movt	r0, #16128	; 0x3f00
    817c:	ebffffb4 	bl	8054 <PUT32>
    8180:	e30b041c 	movw	r0, #46108	; 0xb41c
    8184:	e3a010f9 	mov	r1, #249	; 0xf9
    8188:	e3430f00 	movt	r0, #16128	; 0x3f00
    818c:	ebffffb0 	bl	8054 <PUT32>
    8190:	e30b040c 	movw	r0, #46092	; 0xb40c
    8194:	e3a01000 	mov	r1, #0
    8198:	e3430f00 	movt	r0, #16128	; 0x3f00
    819c:	ebffffac 	bl	8054 <PUT32>
    81a0:	e3a010a2 	mov	r1, #162	; 0xa2
    81a4:	e30b0408 	movw	r0, #46088	; 0xb408
    81a8:	e340103e 	movt	r1, #62	; 0x3e
    81ac:	e3430f00 	movt	r0, #16128	; 0x3f00
    81b0:	ebffffa7 	bl	8054 <PUT32>
    81b4:	e308147f 	movw	r1, #33919	; 0x847f
    81b8:	e3a00b2d 	mov	r0, #46080	; 0xb400
    81bc:	e340101e 	movt	r1, #30
    81c0:	e3430f00 	movt	r0, #16128	; 0x3f00
    81c4:	ebffffa2 	bl	8054 <PUT32>
    81c8:	e308147f 	movw	r1, #33919	; 0x847f
    81cc:	e30b0418 	movw	r0, #46104	; 0xb418
    81d0:	e340101e 	movt	r1, #30
    81d4:	e3430f00 	movt	r0, #16128	; 0x3f00
    81d8:	ebffff9d 	bl	8054 <PUT32>
    81dc:	e30b040c 	movw	r0, #46092	; 0xb40c
    81e0:	e3a01000 	mov	r1, #0
    81e4:	e3430f00 	movt	r0, #16128	; 0x3f00
    81e8:	ebffff99 	bl	8054 <PUT32>
    81ec:	e30b0218 	movw	r0, #45592	; 0xb218
    81f0:	e3a01001 	mov	r1, #1
    81f4:	e3430f00 	movt	r0, #16128	; 0x3f00
    81f8:	ebffff95 	bl	8054 <PUT32>
    81fc:	e304123f 	movw	r1, #16959	; 0x423f
    8200:	e3a00b2d 	mov	r0, #46080	; 0xb400
    8204:	e340100f 	movt	r1, #15
    8208:	e3430f00 	movt	r0, #16128	; 0x3f00
    820c:	ebffff90 	bl	8054 <PUT32>
    8210:	e304123f 	movw	r1, #16959	; 0x423f
    8214:	e30b0418 	movw	r0, #46104	; 0xb418
    8218:	e340100f 	movt	r1, #15
    821c:	e3430f00 	movt	r0, #16128	; 0x3f00
    8220:	ebffff8b 	bl	8054 <PUT32>
    8224:	e308323c 	movw	r3, #33340	; 0x823c
    8228:	e3a02000 	mov	r2, #0
    822c:	e3403000 	movt	r3, #0
    8230:	e5832000 	str	r2, [r3]
    8234:	ebffff8b 	bl	8068 <enable_irq>
    8238:	eafffffe 	b	8238 <notmain+0x134>

Disassembly of section .bss:

0000823c <icount>:
    823c:	00000000 	andeq	r0, r0, r0

Disassembly of section .ARM.attributes:

00000000 <.ARM.attributes>:
   0:	00002f41 	andeq	r2, r0, r1, asr #30
   4:	61656100 	cmnvs	r5, r0, lsl #2
   8:	01006962 	tsteq	r0, r2, ror #18
   c:	00000025 	andeq	r0, r0, r5, lsr #32
  10:	4d524105 	ldfmie	f4, [r2, #-20]	; 0xffffffec
  14:	00377620 	eorseq	r7, r7, r0, lsr #12
  18:	41070a06 	tstmi	r7, r6, lsl #20
  1c:	02090108 	andeq	r0, r9, #8, 2
  20:	01140412 	tsteq	r4, r2, lsl r4
  24:	03170115 	tsteq	r7, #1073741829	; 0x40000005
  28:	011a0118 	tsteq	sl, r8, lsl r1
  2c:	02440122 	subeq	r0, r4, #-2147483640	; 0x80000008

Disassembly of section .comment:

00000000 <.comment>:
   0:	3a434347 	bcc	10d0d24 <icount+0x10c8ae8>
   4:	4e472820 	cdpmi	8, 4, cr2, cr7, cr0, {1}
   8:	6f542055 	svcvs	0x00542055
   c:	20736c6f 	rsbscs	r6, r3, pc, ror #24
  10:	20726f66 	rsbscs	r6, r2, r6, ror #30
  14:	204d5241 	subcs	r5, sp, r1, asr #4
  18:	65626d45 	strbvs	r6, [r2, #-3397]!	; 0xfffff2bb
  1c:	64656464 	strbtvs	r6, [r5], #-1124	; 0xfffffb9c
  20:	6f725020 	svcvs	0x00725020
  24:	73736563 	cmnvc	r3, #415236096	; 0x18c00000
  28:	2973726f 	ldmdbcs	r3!, {r0, r1, r2, r3, r5, r6, r9, ip, sp, lr}^
  2c:	342e3520 	strtcc	r3, [lr], #-1312	; 0xfffffae0
  30:	3220312e 	eorcc	r3, r0, #-2147483637	; 0x8000000b
  34:	30363130 	eorscc	r3, r6, r0, lsr r1
  38:	20393139 	eorscs	r3, r9, r9, lsr r1
  3c:	6c657228 	sfmvs	f7, 2, [r5], #-160	; 0xffffff60
  40:	65736165 	ldrbvs	r6, [r3, #-357]!	; 0xfffffe9b
  44:	415b2029 	cmpmi	fp, r9, lsr #32
  48:	652f4d52 	strvs	r4, [pc, #-3410]!	; fffff2fe <icount+0xffff70c2>
  4c:	6465626d 	strbtvs	r6, [r5], #-621	; 0xfffffd93
  50:	2d646564 	cfstr64cs	mvdx6, [r4, #-400]!	; 0xfffffe70
  54:	72622d35 	rsbvc	r2, r2, #3392	; 0xd40
  58:	68636e61 	stmdavs	r3!, {r0, r5, r6, r9, sl, fp, sp, lr}^
  5c:	76657220 	strbtvc	r7, [r5], -r0, lsr #4
  60:	6f697369 	svcvs	0x00697369
  64:	3432206e 	ldrtcc	r2, [r2], #-110	; 0xffffff92
  68:	36393430 			; <UNDEFINED> instruction: 0x36393430
  6c:	Address 0x000000000000006c is out of bounds.

